Certificate:
    Data:
        Version: 3 (0x2)
        Serial Number: 2 (0x2)
        Signature Algorithm: sha256WithRSAEncryption
        Issuer: C=CN, ST=SH, L=SH, O=Honeywell, OU=HPS, CN=root.ca.honeywell.com
        Validity
            Not Before: Aug 21 06:00:48 2020 GMT
            Not After : Aug 21 06:00:48 2030 GMT
        Subject: C=CN, ST=SH, L=SH, O=Honeywell, OU=HPS, CN=signing.ca.honeywell.com
        Subject Public Key Info:
            Public Key Algorithm: rsaEncryption
                RSA Public-Key: (2048 bit)
                Modulus:
                    00:c2:d3:12:89:14:18:1f:52:90:6f:7a:83:dd:fd:
                    79:5e:23:57:4a:2d:c9:89:5d:51:13:0a:2d:e2:f3:
                    71:dc:d5:e2:04:7c:98:df:2b:ba:58:c4:90:55:5c:
                    fd:16:14:17:ab:9b:d8:e4:44:49:63:30:ba:a7:33:
                    e7:4c:a6:c8:38:9a:85:56:08:43:bd:42:64:95:4d:
                    d7:ac:41:1e:e5:ba:12:08:f8:05:d3:26:54:e2:a1:
                    1c:df:aa:9b:9d:e4:a0:15:a1:3c:ca:14:95:f1:36:
                    ed:14:7b:e7:14:c9:0d:cc:37:d1:c2:fa:14:68:38:
                    24:44:0e:d4:26:25:4e:7b:43:e8:cb:fc:60:8f:c2:
                    95:a4:af:b9:09:f1:1e:18:3d:a9:cc:82:da:c4:dc:
                    f9:0c:76:ac:91:74:3e:16:6f:46:3f:eb:44:11:49:
                    49:cb:c3:65:c4:f3:62:29:4f:be:47:d9:99:a6:56:
                    8a:a2:a6:ed:3c:fc:35:79:86:ae:35:59:3a:e6:6f:
                    68:e4:f1:3d:05:4b:80:f4:a3:8b:11:d7:1a:64:9e:
                    0c:f6:24:92:70:ab:f8:bd:91:43:3a:66:45:fc:48:
                    e8:0e:af:91:ad:a3:93:4d:57:85:7f:3b:b8:ab:04:
                    ef:e8:0e:f0:19:e9:4c:60:3e:06:3d:a3:eb:e8:b2:
                    d8:c3
                Exponent: 65537 (0x10001)
        X509v3 extensions:
            X509v3 Key Usage: critical
                Certificate Sign, CRL Sign
            X509v3 Basic Constraints: critical
                CA:TRUE, pathlen:0
            X509v3 Subject Key Identifier: 
                D2:C0:78:B0:75:13:89:A2:85:7B:E4:F0:EF:BD:6A:32:25:67:76:A6
            X509v3 Authority Key Identifier: 
                keyid:34:9D:ED:75:C9:3D:39:A8:C5:4D:8E:84:BE:49:70:2D:DF:00:E2:F8

    Signature Algorithm: sha256WithRSAEncryption
         6c:45:cd:aa:02:95:77:04:d8:40:75:cd:b1:70:b8:ab:c9:05:
         94:e7:1f:88:88:bd:54:53:18:19:8d:f7:81:9a:f8:a3:98:5a:
         ae:00:69:99:31:ef:6b:19:57:8a:54:9f:80:e2:d4:a7:30:62:
         6a:08:2f:df:f4:60:22:1d:ed:86:7d:95:dd:3b:a7:8c:19:eb:
         38:48:ec:35:9f:32:49:c8:53:e8:58:3b:ef:72:de:69:a6:0d:
         25:cc:9f:2f:6f:69:02:4e:f7:2a:9a:31:16:6d:44:1a:fb:60:
         39:51:16:94:a2:48:5b:f9:4a:30:de:ad:57:f2:03:71:b6:c1:
         90:e3:9f:aa:06:37:31:f7:89:d2:66:87:b9:42:f8:2e:8f:09:
         af:33:98:ea:df:d1:06:ed:62:9e:f5:b5:51:e3:0b:5c:da:7e:
         ed:3b:82:a3:2e:ef:79:2e:a1:20:93:a2:d8:9d:55:b5:eb:44:
         cf:43:29:0e:cd:50:6d:e2:05:f8:16:88:2e:fe:a0:9a:c3:d5:
         33:1a:30:a1:75:55:34:83:ec:30:f3:ed:67:07:42:09:de:02:
         a3:9f:ee:f6:29:cc:2a:ce:bc:6d:e5:72:59:e1:83:b1:d5:3f:
         5f:af:71:03:57:2d:18:ab:37:3b:3d:d1:ee:ed:a9:25:ca:60:
         5c:e9:80:00
-----BEGIN CERTIFICATE-----
MIIDtjCCAp6gAwIBAgIBAjANBgkqhkiG9w0BAQsFADBpMQswCQYDVQQGEwJDTjEL
MAkGA1UECAwCU0gxCzAJBgNVBAcMAlNIMRIwEAYDVQQKDAlIb25leXdlbGwxDDAK
BgNVBAsMA0hQUzEeMBwGA1UEAwwVcm9vdC5jYS5ob25leXdlbGwuY29tMB4XDTIw
MDgyMTA2MDA0OFoXDTMwMDgyMTA2MDA0OFowbDELMAkGA1UEBhMCQ04xCzAJBgNV
BAgMAlNIMQswCQYDVQQHDAJTSDESMBAGA1UECgwJSG9uZXl3ZWxsMQwwCgYDVQQL
DANIUFMxITAfBgNVBAMMGHNpZ25pbmcuY2EuaG9uZXl3ZWxsLmNvbTCCASIwDQYJ
KoZIhvcNAQEBBQADggEPADCCAQoCggEBAMLTEokUGB9SkG96g939eV4jV0otyYld
URMKLeLzcdzV4gR8mN8ruljEkFVc/RYUF6ub2ORESWMwuqcz50ymyDiahVYIQ71C
ZJVN16xBHuW6Egj4BdMmVOKhHN+qm53koBWhPMoUlfE27RR75xTJDcw30cL6FGg4
JEQO1CYlTntD6Mv8YI/ClaSvuQnxHhg9qcyC2sTc+Qx2rJF0PhZvRj/rRBFJScvD
ZcTzYilPvkfZmaZWiqKm7Tz8NXmGrjVZOuZvaOTxPQVLgPSjixHXGmSeDPYkknCr
+L2RQzpmRfxI6A6vka2jk01XhX87uKsE7+gO8BnpTGA+Bj2j6+iy2MMCAwEAAaNm
MGQwDgYDVR0PAQH/BAQDAgEGMBIGA1UdEwEB/wQIMAYBAf8CAQAwHQYDVR0OBBYE
FNLAeLB1E4mihXvk8O+9ajIlZ3amMB8GA1UdIwQYMBaAFDSd7XXJPTmoxU2OhL5J
cC3fAOL4MA0GCSqGSIb3DQEBCwUAA4IBAQBsRc2qApV3BNhAdc2xcLiryQWU5x+I
iL1UUxgZjfeBmvijmFquAGmZMe9rGVeKVJ+A4tSnMGJqCC/f9GAiHe2GfZXdO6eM
Ges4SOw1nzJJyFPoWDvvct5ppg0lzJ8vb2kCTvcqmjEWbUQa+2A5URaUokhb+Uow
3q1X8gNxtsGQ45+qBjcx94nSZoe5QvgujwmvM5jq39EG7WKe9bVR4wtc2n7tO4Kj
Lu95LqEgk6LYnVW160TPQykOzVBt4gX4Fogu/qCaw9UzGjChdVU0g+ww8+1nB0IJ
3gKjn+72Kcwqzrxt5XJZ4YOx1T9fr3EDVy0Yqzc7PdHu7aklymBc6YAA
-----END CERTIFICATE-----
