Certificate:
    Data:
        Version: 3 (0x2)
        Serial Number: 1 (0x1)
        Signature Algorithm: sha256WithRSAEncryption
        Issuer: C=CN, ST=SH, L=SH, O=Honeywell, OU=HPS, CN=signing.ca.honeywell.com
        Validity
            Not Before: Aug 21 06:04:53 2020 GMT
            Not After : Aug 21 06:04:53 2022 GMT
        Subject: C=CN, ST=Shanghai, L=Shanghai, O=Honeywell, OU=HPS, CN=rtu.1231231.honeywell.com
        Subject Public Key Info:
            Public Key Algorithm: rsaEncryption
                RSA Public-Key: (2048 bit)
                Modulus:
                    00:c4:26:6c:32:4e:f6:e7:91:ff:1e:3e:68:43:ad:
                    c7:0a:39:61:2d:4a:3d:d1:73:98:63:b4:5a:74:71:
                    8b:f6:42:9e:56:f6:44:c5:e2:f2:ac:be:11:de:5b:
                    a2:0b:ba:7f:b7:48:f9:61:39:39:f7:02:f8:05:88:
                    2d:46:ce:fc:ff:cf:af:ee:b7:b8:dd:12:06:f0:df:
                    9b:6b:95:fd:a1:5d:bf:d1:f5:84:d0:81:56:88:62:
                    41:cc:5c:43:3c:08:a1:55:7d:da:b6:97:06:3f:56:
                    d7:92:8e:d3:04:fa:36:db:a1:ae:b6:c1:62:33:4c:
                    a3:d7:c2:d9:dd:35:c3:b8:f0:f6:79:0e:f0:ed:30:
                    22:0f:6a:0b:60:6e:70:32:51:0d:ba:66:2e:c0:18:
                    14:13:ee:79:14:8d:d7:ae:a2:35:14:e0:11:20:e5:
                    14:f5:56:d0:f9:ce:38:09:44:c3:dd:b3:93:b6:15:
                    c0:d8:2a:87:e5:11:9a:03:85:8f:e1:3f:22:15:37:
                    b0:06:21:ed:c3:45:97:41:6f:9a:32:ec:50:33:13:
                    27:6f:85:0b:7e:84:9a:4b:e4:33:c9:13:4c:0a:91:
                    74:ae:5b:f4:de:81:c0:58:92:a6:27:cc:f4:42:75:
                    47:62:ad:a9:e4:14:62:4a:04:3e:b4:e7:10:95:61:
                    76:25
                Exponent: 65537 (0x10001)
        X509v3 extensions:
            X509v3 Key Usage: critical
                Digital Signature, Key Encipherment
            X509v3 Basic Constraints: 
                CA:FALSE
            X509v3 Extended Key Usage: 
                TLS Web Server Authentication, TLS Web Client Authentication
            X509v3 Subject Key Identifier: 
                3F:3D:C1:8C:20:3E:58:4A:F8:FA:E9:66:D5:0A:EC:A6:DD:14:3E:03
            X509v3 Authority Key Identifier: 
                keyid:D2:C0:78:B0:75:13:89:A2:85:7B:E4:F0:EF:BD:6A:32:25:67:76:A6

    Signature Algorithm: sha256WithRSAEncryption
         8e:6d:47:68:91:f5:4f:4a:d7:8a:cc:b2:3f:c2:a0:a1:21:f9:
         a9:45:5b:05:b3:aa:1d:a4:b3:ea:19:76:3e:76:90:27:68:6e:
         74:50:70:14:57:8d:52:55:98:8c:61:fa:47:23:18:ea:17:c5:
         6c:d6:aa:21:44:9d:09:3f:79:2a:b1:d0:f6:dd:d8:7a:ca:71:
         cf:aa:b0:cb:43:3c:7f:4b:7a:76:b5:17:53:9f:3c:3f:5b:3e:
         67:9e:40:00:17:bd:8a:57:c8:f2:33:df:5b:ea:5f:b6:25:fe:
         6a:50:d2:c5:14:25:c9:e2:04:85:3c:41:e2:39:04:5f:b5:57:
         63:86:78:cf:ee:04:6e:27:c3:c5:58:d5:98:ff:c5:a7:b2:3d:
         a4:c2:d1:33:8d:e2:55:c2:1e:73:29:3c:9e:89:4f:d1:97:70:
         92:3a:2b:58:b4:72:05:fd:64:89:9d:dd:1c:e5:e1:8d:ab:d3:
         64:2d:00:bc:09:73:f5:c5:5a:2c:4d:d2:7a:51:f3:32:ed:0d:
         c1:57:4c:e1:02:68:b3:92:38:0d:aa:26:9d:4e:08:c4:00:42:
         b0:0e:fc:9e:cf:1a:67:52:36:2e:46:29:e8:ff:a4:19:4c:01:
         96:52:a8:35:8b:ea:a3:c2:4d:0d:e6:2b:38:fd:4f:47:59:7f:
         b1:64:5c:58
-----BEGIN CERTIFICATE-----
MIID3DCCAsSgAwIBAgIBATANBgkqhkiG9w0BAQsFADBsMQswCQYDVQQGEwJDTjEL
MAkGA1UECAwCU0gxCzAJBgNVBAcMAlNIMRIwEAYDVQQKDAlIb25leXdlbGwxDDAK
BgNVBAsMA0hQUzEhMB8GA1UEAwwYc2lnbmluZy5jYS5ob25leXdlbGwuY29tMB4X
DTIwMDgyMTA2MDQ1M1oXDTIyMDgyMTA2MDQ1M1oweTELMAkGA1UEBhMCQ04xETAP
BgNVBAgMCFNoYW5naGFpMREwDwYDVQQHDAhTaGFuZ2hhaTESMBAGA1UECgwJSG9u
ZXl3ZWxsMQwwCgYDVQQLDANIUFMxIjAgBgNVBAMMGXJ0dS4xMjMxMjMxLmhvbmV5
d2VsbC5jb20wggEiMA0GCSqGSIb3DQEBAQUAA4IBDwAwggEKAoIBAQDEJmwyTvbn
kf8ePmhDrccKOWEtSj3Rc5hjtFp0cYv2Qp5W9kTF4vKsvhHeW6ILun+3SPlhOTn3
AvgFiC1Gzvz/z6/ut7jdEgbw35trlf2hXb/R9YTQgVaIYkHMXEM8CKFVfdq2lwY/
VteSjtME+jbboa62wWIzTKPXwtndNcO48PZ5DvDtMCIPagtgbnAyUQ26Zi7AGBQT
7nkUjdeuojUU4BEg5RT1VtD5zjgJRMPds5O2FcDYKoflEZoDhY/hPyIVN7AGIe3D
RZdBb5oy7FAzEydvhQt+hJpL5DPJE0wKkXSuW/TegcBYkqYnzPRCdUdirankFGJK
BD605xCVYXYlAgMBAAGjfDB6MA4GA1UdDwEB/wQEAwIFoDAJBgNVHRMEAjAAMB0G
A1UdJQQWMBQGCCsGAQUFBwMBBggrBgEFBQcDAjAdBgNVHQ4EFgQUPz3BjCA+WEr4
+ulm1Qrspt0UPgMwHwYDVR0jBBgwFoAU0sB4sHUTiaKFe+Tw771qMiVndqYwDQYJ
KoZIhvcNAQELBQADggEBAI5tR2iR9U9K14rMsj/CoKEh+alFWwWzqh2ks+oZdj52
kCdobnRQcBRXjVJVmIxh+kcjGOoXxWzWqiFEnQk/eSqx0Pbd2HrKcc+qsMtDPH9L
ena1F1OfPD9bPmeeQAAXvYpXyPIz31vqX7Yl/mpQ0sUUJcniBIU8QeI5BF+1V2OG
eM/uBG4nw8VY1Zj/xaeyPaTC0TON4lXCHnMpPJ6JT9GXcJI6K1i0cgX9ZImd3Rzl
4Y2r02QtALwJc/XFWixN0npR8zLtDcFXTOECaLOSOA2qJp1OCMQAQrAO/J7PGmdS
Ni5GKej/pBlMAZZSqDWL6qPCTQ3mKzj9T0dZf7FkXFg=
-----END CERTIFICATE-----
